target datalayout = "e-m:e-p270:32:32-p271:32:32-p272:64:64-i64:64-i128:128-f80:128-n8:16:32:64-S128"
target triple = "x86_64-pc-linux-gnu"

@.str.3 = private unnamed_addr constant [2 x i8] c"\0A\00", align 1
@.str.4 = private unnamed_addr constant [35 x i8] c"    nlutmap [options] [selection]\0A\00", align 1
@.str.5 = private unnamed_addr constant [74 x i8] c"This pass uses successive calls to 'abc' to map to an architecture. That\0A\00", align 1
@.str.6 = private unnamed_addr constant [52 x i8] c"provides a small number of differently sized LUTs.\0A\00", align 1
@.str.7 = private unnamed_addr constant [27 x i8] c"    -luts N_1,N_2,N_3,...\0A\00", align 1
@.str.8 = private unnamed_addr constant [62 x i8] c"        The number of LUTs with 1, 2, 3, ... inputs that are\0A\00", align 1
@.str.9 = private unnamed_addr constant [47 x i8] c"        available in the target architecture.\0A\00", align 1
@.str.10 = private unnamed_addr constant [13 x i8] c"    -assert\0A\00", align 1
@.str.11 = private unnamed_addr constant [56 x i8] c"        Create an error if not all logic can be mapped\0A\00", align 1
@.str.12 = private unnamed_addr constant [71 x i8] c"Excess logic that does not fit into the specified LUTs is mapped back\0A\00", align 1
@.str.13 = private unnamed_addr constant [40 x i8] c"to generic logic gates ($_AND_, etc.).\0A\00", align 1

; Function Attrs: mustprogress uwtable
define internal void @_ZN12_GLOBAL__N_111NlutmapPass4helpEv(ptr noundef nonnull align 8 dereferenceable(104) %0) unnamed_addr #4 align 2 {
  %2 = alloca ptr, align 8
  store ptr %0, ptr %2, align 8
  call void (ptr, ...) @_ZN5Yosys3logEPKcz(ptr noundef @.str.3)
  call void (ptr, ...) @_ZN5Yosys3logEPKcz(ptr noundef @.str.4)
  call void (ptr, ...) @_ZN5Yosys3logEPKcz(ptr noundef @.str.3)
  call void (ptr, ...) @_ZN5Yosys3logEPKcz(ptr noundef @.str.5)
  call void (ptr, ...) @_ZN5Yosys3logEPKcz(ptr noundef @.str.6)
  call void (ptr, ...) @_ZN5Yosys3logEPKcz(ptr noundef @.str.3)
  call void (ptr, ...) @_ZN5Yosys3logEPKcz(ptr noundef @.str.7)
  call void (ptr, ...) @_ZN5Yosys3logEPKcz(ptr noundef @.str.8)
  call void (ptr, ...) @_ZN5Yosys3logEPKcz(ptr noundef @.str.9)
  call void (ptr, ...) @_ZN5Yosys3logEPKcz(ptr noundef @.str.3)
  call void (ptr, ...) @_ZN5Yosys3logEPKcz(ptr noundef @.str.10)
  call void (ptr, ...) @_ZN5Yosys3logEPKcz(ptr noundef @.str.11)
  call void (ptr, ...) @_ZN5Yosys3logEPKcz(ptr noundef @.str.3)
  call void (ptr, ...) @_ZN5Yosys3logEPKcz(ptr noundef @.str.12)
  call void (ptr, ...) @_ZN5Yosys3logEPKcz(ptr noundef @.str.13)
  call void (ptr, ...) @_ZN5Yosys3logEPKcz(ptr noundef @.str.3)
  ret void
}